; Function Attrs: mustprogress nofree norecurse nosync nounwind willreturn memory(argmem: read) uwtable
define dso_local double @data_get_float(ptr noundef readonly captures(address_is_null) %0) local_unnamed_addr #6 {
  %.not = icmp eq ptr %0, null
  br i1 %.not, label %5, label %2

2:                                                ; preds = %1
  %3 = getelementptr inbounds nuw i8, ptr %0, i64 8
  %4 = load double, ptr %3, align 8
  br label %5

5:                                                ; preds = %1, %2
  %.0 = phi double [ %4, %2 ], [ 0x7FF8000000000000, %1 ]
  ret double %.0
}